; ModuleID = '46/2795.c'
source_filename = "46/2795.c"
target datalayout = "e-m:e-p270:32:32-p271:32:32-p272:64:64-i64:64-f80:128-n8:16:32:64-S128"
target triple = "x86_64-pc-linux-gnu"

@.str = private unnamed_addr constant [5 x i8] c"%d%d\00", align 1
@.str.1 = private unnamed_addr constant [3 x i8] c"%d\00", align 1
@.str.2 = private unnamed_addr constant [4 x i8] c"\0A%d\00", align 1
@.str.3 = private unnamed_addr constant [2 x i8] c"\0A\00", align 1

; Function Attrs: noinline nounwind uwtable
define dso_local i32 @main() #0 {
  %1 = alloca i32, align 4
  %2 = alloca i32, align 4
  %3 = alloca i32, align 4
  %4 = alloca i32, align 4
  %5 = alloca i32, align 4
  %6 = alloca i32, align 4
  %7 = alloca i32, align 4
  %8 = alloca [100 x [100 x i32]], align 16
  %9 = alloca i32, align 4
  %10 = alloca i32, align 4
  %11 = alloca i32, align 4
  %12 = alloca i32, align 4
  store i32 0, i32* %1, align 4
  store i32 0, i32* %6, align 4
  %13 = bitcast [100 x [100 x i32]]* %8 to i8*
  call void @llvm.memset.p0i8.i64(i8* align 16 %13, i8 0, i64 40000, i1 false)
  %14 = call i32 (i8*, ...) @__isoc99_scanf(i8* getelementptr inbounds ([5 x i8], [5 x i8]* @.str, i64 0, i64 0), i32* %2, i32* %3)
  store i32 0, i32* %4, align 4
  br label %15

15:                                               ; preds = %36, %0
  %16 = load i32, i32* %4, align 4
  %17 = load i32, i32* %2, align 4
  %18 = icmp slt i32 %16, %17
  br i1 %18, label %19, label %39

19:                                               ; preds = %15
  store i32 0, i32* %5, align 4
  br label %20

20:                                               ; preds = %32, %19
  %21 = load i32, i32* %5, align 4
  %22 = load i32, i32* %3, align 4
  %23 = icmp slt i32 %21, %22
  br i1 %23, label %24, label %35

24:                                               ; preds = %20
  %25 = load i32, i32* %4, align 4
  %26 = sext i32 %25 to i64
  %27 = getelementptr inbounds [100 x [100 x i32]], [100 x [100 x i32]]* %8, i64 0, i64 %26
  %28 = load i32, i32* %5, align 4
  %29 = sext i32 %28 to i64
  %30 = getelementptr inbounds [100 x i32], [100 x i32]* %27, i64 0, i64 %29
  %31 = call i32 (i8*, ...) @__isoc99_scanf(i8* getelementptr inbounds ([3 x i8], [3 x i8]* @.str.1, i64 0, i64 0), i32* %30)
  br label %32

32:                                               ; preds = %24
  %33 = load i32, i32* %5, align 4
  %34 = add nsw i32 %33, 1
  store i32 %34, i32* %5, align 4
  br label %20

35:                                               ; preds = %20
  br label %36

36:                                               ; preds = %35
  %37 = load i32, i32* %4, align 4
  %38 = add nsw i32 %37, 1
  store i32 %38, i32* %4, align 4
  br label %15

39:                                               ; preds = %15
  %40 = load i32, i32* %3, align 4
  store i32 %40, i32* %9, align 4
  %41 = load i32, i32* %2, align 4
  store i32 %41, i32* %10, align 4
  store i32 0, i32* %11, align 4
  store i32 0, i32* %12, align 4
  br label %42

42:                                               ; preds = %39, %191
  %43 = load i32, i32* %11, align 4
  %44 = sext i32 %43 to i64
  %45 = getelementptr inbounds [100 x [100 x i32]], [100 x [100 x i32]]* %8, i64 0, i64 %44
  %46 = load i32, i32* %12, align 4
  %47 = sext i32 %46 to i64
  %48 = getelementptr inbounds [100 x i32], [100 x i32]* %45, i64 0, i64 %47
  %49 = load i32, i32* %48, align 4
  %50 = call i32 (i8*, ...) @printf(i8* getelementptr inbounds ([3 x i8], [3 x i8]* @.str.1, i64 0, i64 0), i32 %49)
  %51 = load i32, i32* %6, align 4
  %52 = add nsw i32 %51, 1
  store i32 %52, i32* %6, align 4
  %53 = load i32, i32* %6, align 4
  %54 = load i32, i32* %2, align 4
  %55 = load i32, i32* %3, align 4
  %56 = mul nsw i32 %54, %55
  %57 = icmp eq i32 %53, %56
  br i1 %57, label %58, label %59

58:                                               ; preds = %42
  br label %198

59:                                               ; preds = %42
  %60 = load i32, i32* %11, align 4
  store i32 %60, i32* %4, align 4
  %61 = load i32, i32* %12, align 4
  %62 = add nsw i32 %61, 1
  store i32 %62, i32* %5, align 4
  br label %63

63:                                               ; preds = %80, %59
  %64 = load i32, i32* %5, align 4
  %65 = load i32, i32* %12, align 4
  %66 = load i32, i32* %9, align 4
  %67 = add nsw i32 %65, %66
  %68 = icmp slt i32 %64, %67
  br i1 %68, label %69, label %83

69:                                               ; preds = %63
  %70 = load i32, i32* %4, align 4
  %71 = sext i32 %70 to i64
  %72 = getelementptr inbounds [100 x [100 x i32]], [100 x [100 x i32]]* %8, i64 0, i64 %71
  %73 = load i32, i32* %5, align 4
  %74 = sext i32 %73 to i64
  %75 = getelementptr inbounds [100 x i32], [100 x i32]* %72, i64 0, i64 %74
  %76 = load i32, i32* %75, align 4
  %77 = call i32 (i8*, ...) @printf(i8* getelementptr inbounds ([4 x i8], [4 x i8]* @.str.2, i64 0, i64 0), i32 %76)
  %78 = load i32, i32* %6, align 4
  %79 = add nsw i32 %78, 1
  store i32 %79, i32* %6, align 4
  br label %80

80:                                               ; preds = %69
  %81 = load i32, i32* %5, align 4
  %82 = add nsw i32 %81, 1
  store i32 %82, i32* %5, align 4
  br label %63

83:                                               ; preds = %63
  %84 = load i32, i32* %6, align 4
  %85 = load i32, i32* %2, align 4
  %86 = load i32, i32* %3, align 4
  %87 = mul nsw i32 %85, %86
  %88 = icmp eq i32 %84, %87
  br i1 %88, label %89, label %90

89:                                               ; preds = %83
  br label %198

90:                                               ; preds = %83
  %91 = load i32, i32* %10, align 4
  %92 = add nsw i32 %91, -1
  store i32 %92, i32* %10, align 4
  %93 = load i32, i32* %5, align 4
  %94 = add nsw i32 %93, -1
  store i32 %94, i32* %5, align 4
  %95 = load i32, i32* %4, align 4
  %96 = add nsw i32 %95, 1
  store i32 %96, i32* %4, align 4
  br label %97

97:                                               ; preds = %115, %90
  %98 = load i32, i32* %4, align 4
  %99 = load i32, i32* %11, align 4
  %100 = load i32, i32* %10, align 4
  %101 = add nsw i32 %99, %100
  %102 = add nsw i32 %101, 1
  %103 = icmp slt i32 %98, %102
  br i1 %103, label %104, label %118

104:                                              ; preds = %97
  %105 = load i32, i32* %4, align 4
  %106 = sext i32 %105 to i64
  %107 = getelementptr inbounds [100 x [100 x i32]], [100 x [100 x i32]]* %8, i64 0, i64 %106
  %108 = load i32, i32* %5, align 4
  %109 = sext i32 %108 to i64
  %110 = getelementptr inbounds [100 x i32], [100 x i32]* %107, i64 0, i64 %109
  %111 = load i32, i32* %110, align 4
  %112 = call i32 (i8*, ...) @printf(i8* getelementptr inbounds ([4 x i8], [4 x i8]* @.str.2, i64 0, i64 0), i32 %111)
  %113 = load i32, i32* %6, align 4
  %114 = add nsw i32 %113, 1
  store i32 %114, i32* %6, align 4
  br label %115

115:                                              ; preds = %104
  %116 = load i32, i32* %4, align 4
  %117 = add nsw i32 %116, 1
  store i32 %117, i32* %4, align 4
  br label %97

118:                                              ; preds = %97
  %119 = load i32, i32* %6, align 4
  %120 = load i32, i32* %2, align 4
  %121 = load i32, i32* %3, align 4
  %122 = mul nsw i32 %120, %121
  %123 = icmp eq i32 %119, %122
  br i1 %123, label %124, label %125

124:                                              ; preds = %118
  br label %198

125:                                              ; preds = %118
  %126 = load i32, i32* %9, align 4
  %127 = add nsw i32 %126, -1
  store i32 %127, i32* %9, align 4
  %128 = load i32, i32* %4, align 4
  %129 = add nsw i32 %128, -1
  store i32 %129, i32* %4, align 4
  %130 = load i32, i32* %5, align 4
  %131 = sub nsw i32 %130, 1
  store i32 %131, i32* %5, align 4
  br label %132

132:                                              ; preds = %147, %125
  %133 = load i32, i32* %5, align 4
  %134 = load i32, i32* %12, align 4
  %135 = icmp sge i32 %133, %134
  br i1 %135, label %136, label %150

136:                                              ; preds = %132
  %137 = load i32, i32* %4, align 4
  %138 = sext i32 %137 to i64
  %139 = getelementptr inbounds [100 x [100 x i32]], [100 x [100 x i32]]* %8, i64 0, i64 %138
  %140 = load i32, i32* %5, align 4
  %141 = sext i32 %140 to i64
  %142 = getelementptr inbounds [100 x i32], [100 x i32]* %139, i64 0, i64 %141
  %143 = load i32, i32* %142, align 4
  %144 = call i32 (i8*, ...) @printf(i8* getelementptr inbounds ([4 x i8], [4 x i8]* @.str.2, i64 0, i64 0), i32 %143)
  %145 = load i32, i32* %6, align 4
  %146 = add nsw i32 %145, 1
  store i32 %146, i32* %6, align 4
  br label %147

147:                                              ; preds = %136
  %148 = load i32, i32* %5, align 4
  %149 = add nsw i32 %148, -1
  store i32 %149, i32* %5, align 4
  br label %132

150:                                              ; preds = %132
  %151 = load i32, i32* %6, align 4
  %152 = load i32, i32* %2, align 4
  %153 = load i32, i32* %3, align 4
  %154 = mul nsw i32 %152, %153
  %155 = icmp eq i32 %151, %154
  br i1 %155, label %156, label %157

156:                                              ; preds = %150
  br label %198

157:                                              ; preds = %150
  %158 = load i32, i32* %10, align 4
  %159 = add nsw i32 %158, -1
  store i32 %159, i32* %10, align 4
  %160 = load i32, i32* %5, align 4
  %161 = add nsw i32 %160, 1
  store i32 %161, i32* %5, align 4
  %162 = load i32, i32* %4, align 4
  %163 = sub nsw i32 %162, 1
  store i32 %163, i32* %4, align 4
  br label %164

164:                                              ; preds = %179, %157
  %165 = load i32, i32* %4, align 4
  %166 = load i32, i32* %11, align 4
  %167 = icmp sgt i32 %165, %166
  br i1 %167, label %168, label %182

168:                                              ; preds = %164
  %169 = load i32, i32* %4, align 4
  %170 = sext i32 %169 to i64
  %171 = getelementptr inbounds [100 x [100 x i32]], [100 x [100 x i32]]* %8, i64 0, i64 %170
  %172 = load i32, i32* %5, align 4
  %173 = sext i32 %172 to i64
  %174 = getelementptr inbounds [100 x i32], [100 x i32]* %171, i64 0, i64 %173
  %175 = load i32, i32* %174, align 4
  %176 = call i32 (i8*, ...) @printf(i8* getelementptr inbounds ([4 x i8], [4 x i8]* @.str.2, i64 0, i64 0), i32 %175)
  %177 = load i32, i32* %6, align 4
  %178 = add nsw i32 %177, 1
  store i32 %178, i32* %6, align 4
  br label %179

179:                                              ; preds = %168
  %180 = load i32, i32* %4, align 4
  %181 = add nsw i32 %180, -1
  store i32 %181, i32* %4, align 4
  br label %164

182:                                              ; preds = %164
  %183 = load i32, i32* %6, align 4
  %184 = load i32, i32* %2, align 4
  %185 = load i32, i32* %3, align 4
  %186 = mul nsw i32 %184, %185
  %187 = icmp eq i32 %183, %186
  br i1 %187, label %188, label %189

188:                                              ; preds = %182
  br label %198

189:                                              ; preds = %182
  %190 = call i32 (i8*, ...) @printf(i8* getelementptr inbounds ([2 x i8], [2 x i8]* @.str.3, i64 0, i64 0))
  br label %191

191:                                              ; preds = %189
  %192 = load i32, i32* %9, align 4
  %193 = add nsw i32 %192, -1
  store i32 %193, i32* %9, align 4
  %194 = load i32, i32* %4, align 4
  %195 = add nsw i32 %194, 1
  store i32 %195, i32* %11, align 4
  %196 = load i32, i32* %12, align 4
  %197 = add nsw i32 %196, 1
  store i32 %197, i32* %12, align 4
  br label %42

198:                                              ; preds = %188, %156, %124, %89, %58
  ret i32 0
}

; Function Attrs: argmemonly nounwind willreturn
declare void @llvm.memset.p0i8.i64(i8* nocapture writeonly, i8, i64, i1 immarg) #1

declare dso_local i32 @__isoc99_scanf(i8*, ...) #2

declare dso_local i32 @printf(i8*, ...) #2


!llvm.module.flags = !{!0}
!llvm.ident = !{!1}

!0 = !{i32 1, !"wchar_size", i32 4}
!1 = !{!"clang version 10.0.0-4ubuntu1 "}
